(dp0
V\u8981
p1
F0.0011173184357541898
sV\u3000
p2
F0.0011173184357541898
sV\u9000
p3
F0.0022346368715083797
sV\u9589
p4
F0.0033519553072625698
sV\u5408
p5
F0.0011173184357541898
sV\u308b
p6
F0.01452513966480447
sV\u4f0a
p7
F0.0033519553072625698
sV\u878d
p8
F0.0011173184357541898
sV\u3093
p9
F0.0011173184357541898
sV\u5e97
p10
F0.013407821229050279
sV\u5916
p11
F0.0022346368715083797
sV\u4f1a
p12
F0.004469273743016759
sV 
p13
F0.004469273743016759
sV\u30a3
p14
F0.0022346368715083797
sV\u5224
p15
F0.0011173184357541898
sV\u30ab
p16
F0.00782122905027933
sV\u672a
p17
F0.0011173184357541898
sV0
p18
F0.01005586592178771
sV\u30b3
p19
F0.0011173184357541898
sV\u65b9
p20
F0.0033519553072625698
sV\u5438
p21
F0.0011173184357541898
sV\u30bb
p22
F0.0022346368715083797
sV\u8a3c
p23
F0.0011173184357541898
sV\u8abf
p24
F0.0011173184357541898
sV\u793e
p25
F0.0067039106145251395
sV\u30e1
p26
F0.012290502793296089
sV\u30c3
p27
F0.004469273743016759
sV\u3048
p28
F0.00558659217877095
sV\u30cb
p29
F0.0011173184357541898
sV\u91d1
p30
F0.0022346368715083797
sV\u30d3
p31
F0.0011173184357541898
sV\u9752
p32
F0.00782122905027933
sV\u3058
p33
F0.0011173184357541898
sV\u30db
p34
F0.0011173184357541898
sV\u3060
p35
F0.004469273743016759
sV\u30e3
p36
F0.0011173184357541898
sV\u6b62
p37
F0.0011173184357541898
sV\u6238
p38
F0.0022346368715083797
sV\u3068
p39
F0.012290502793296089
sV\u30eb
p40
F0.013407821229050279
sV\u3054
p41
F0.0011173184357541898
sVp
p42
F0.0011173184357541898
sV\u30f3
p43
F0.00782122905027933
sV\u5e74
p44
F0.00782122905027933
sV\u3078
p45
F0.0011173184357541898
sV\u30fb
p46
F0.0033519553072625698
sV\u8003
p47
F0.0011173184357541898
sV\u5f15
p48
F0.0033519553072625698
sV\u8217
p49
F0.0033519553072625698
sV\u306e
p50
F0.03687150837988827
sV\u4f1d
p51
F0.0011173184357541898
sV\u9023
p52
F0.0011173184357541898
sV\u6709
p53
F0.0011173184357541898
sV\u4eac
p54
F0.0011173184357541898
sV\u6e2f
p55
F0.0011173184357541898
sV\u7531
p56
F0.0011173184357541898
sV\u30b0
p57
F0.0067039106145251395
sV3
p58
F0.0033519553072625698
sV\u55b6
p59
F0.0011173184357541898
sV\u30b8
p60
F0.0022346368715083797
sVC
p61
F0.0022346368715083797
sV\u30c8
p62
F0.0022346368715083797
sV\u304b
p63
F0.012290502793296089
sV\u4fca
p64
F0.0011173184357541898
sV\u3053
p65
F0.0011173184357541898
sV\u4f55
p66
F0.0022346368715083797
sVO
p67
F0.0022346368715083797
sV\u305b
p68
F0.0011173184357541898
sV\u884c
p69
F0.0011173184357541898
sV\u30e0
p70
F0.0033519553072625698
sVc
p71
F0.0011173184357541898
sVk
p72
F0.0011173184357541898
sV\u666f
p73
F0.0011173184357541898
sVs
p74
F0.004469273743016759
sV\u76f4
p75
F0.0011173184357541898
sV\u57fa
p76
F0.0011173184357541898
sV\u3081
p77
F0.0022346368715083797
sV\u5e02
p78
F0.0011173184357541898
sV\u3042
p79
F0.004469273743016759
sV\u3089
p80
F0.008938547486033519
sV\u898b
p81
F0.0022346368715083797
sV\u4e0a
p82
F0.00558659217877095
sV\u770c
p83
F0.0011173184357541898
sV\u5c0e
p84
F0.0011173184357541898
sV\u9593
p85
F0.0011173184357541898
sV\u6295
p86
F0.0011173184357541898
sV\u5f97
p87
F0.0011173184357541898
sV\u3056
p88
F0.0011173184357541898
sV\u8ca9
p89
F0.0011173184357541898
sV\u8a2a
p90
F0.0011173184357541898
sV\u672c
p91
F0.0011173184357541898
sV\u7530
p92
F0.0011173184357541898
sV\u6c5f
p93
F0.0022346368715083797
sV6
p94
F0.0011173184357541898
sV\u30b9
p95
F0.0011173184357541898
sV\u5bbf
p96
F0.0011173184357541898
sV4
p97
F0.0011173184357541898
sV\u30c1
p98
F0.0011173184357541898
sVF
p99
F0.0022346368715083797
sV\u30c9
p100
F0.0022346368715083797
sV\u5148
p101
F0.0011173184357541898
sV\u59cb
p102
F0.0011173184357541898
sV\u3063
p103
F0.0022346368715083797
sV8
p104
F0.0011173184357541898
sV\u5238
p105
F0.0011173184357541898
sV\u57df
p106
F0.0011173184357541898
sV\u54e1
p107
F0.0022346368715083797
sV\u5411
p108
F0.0011173184357541898
sV\u4ee5
p109
F0.0022346368715083797
sV\u3066
p110
F0.01452513966480447
sV\u30e9
p111
F0.0011173184357541898
sV\u5168
p112
F0.0022346368715083797
sVn
p113
F0.0067039106145251395
sV\u6570
p114
F0.0011173184357541898
sV\u57f7
p115
F0.0011173184357541898
sV\u3076
p116
F0.0022346368715083797
sV\u7a7a
p117
F0.0011173184357541898
sV\u56fd
p118
F0.0022346368715083797
sV\u306b
p119
F0.01899441340782123
sV\u307e
p120
F0.0022346368715083797
sV\u3001
p121
F0.024581005586592177
sV\u5343
p122
F0.0011173184357541898
sV\u4e0d
p123
F0.0011173184357541898
sV\u5f0f
p124
F0.0011173184357541898
sV\u5c11
p125
F0.0022346368715083797
sV\u306f
p126
F0.01452513966480447
sVR
p127
F0.0011173184357541898
sV\uff1f
p128
F0.0011173184357541898
sVD
p129
F0.0011173184357541898
sV\u30c7
p130
F0.0022346368715083797
sV\u4e2d
p131
F0.0011173184357541898
sV\u632f
p132
F0.0011173184357541898
sV\u9031
p133
F0.0011173184357541898
sV\u65b0
p134
F0.0022346368715083797
sVH
p135
F0.0011173184357541898
sV9
p136
F0.0011173184357541898
sV\u753b
p137
F0.0011173184357541898
sV\u4eba
p138
F0.0022346368715083797
sV\u5143
p139
F0.0011173184357541898
sV\u30c6
p140
F0.0011173184357541898
sV\u8449
p141
F0.0011173184357541898
sV\u524d
p142
F0.0011173184357541898
sV\u90ce
p143
F0.0011173184357541898
sV\u3051
p144
F0.0011173184357541898
sV\u9ed2
p145
F0.0011173184357541898
sV\u8a55
p146
F0.0011173184357541898
sV\u5b57
p147
F0.0033519553072625698
sV\u3059
p148
F0.00558659217877095
sV\u6025
p149
F0.0011173184357541898
sV\u5fdc
p150
F0.0011173184357541898
sV\u3061
p151
F0.0011173184357541898
sV\u7de0
p152
F0.0033519553072625698
sV\u8ee2
p153
F0.0011173184357541898
sV\u30e6
p154
F0.0011173184357541898
sV\u3069
p155
F0.0022346368715083797
sV\u5c31
p156
F0.0022346368715083797
sVT
p157
F0.0011173184357541898
sV\u5c71
p158
F0.0011173184357541898
sV\u5275
p159
F0.0011173184357541898
sV\u3079
p160
F0.0022346368715083797
sV\u727d
p161
F0.0011173184357541898
sV\u9854
p162
F0.0022346368715083797
sV\u8a00
p163
F0.0011173184357541898
sV\u8a08
p164
F0.0011173184357541898
sV\u4e8b
p165
F0.0022346368715083797
sV\u300c
p166
F0.00782122905027933
sV\u308f
p167
F0.0033519553072625698
sV\u6210
p168
F0.0011173184357541898
sV\u529b
p169
F0.0011173184357541898
sV\u591a
p170
F0.0011173184357541898
sV\u4fa1
p171
F0.0011173184357541898
sV1
p172
F0.012290502793296089
sV\u592a
p173
F0.0011173184357541898
sV\u65ad
p174
F0.0011173184357541898
sV\u5834
p175
F0.0022346368715083797
sV\uff08
p176
F0.00782122905027933
sV\u5e38
p177
F0.0011173184357541898
sV\u793a
p178
F0.0011173184357541898
sV\u4f8b
p179
F0.0011173184357541898
sV\u30bf
p180
F0.0022346368715083797
sV\u3044
p181
F0.01564245810055866
sV\u8cc7
p182
F0.0022346368715083797
sV\u7acb
p183
F0.0022346368715083797
sV\u91cd
p184
F0.0011173184357541898
sV\u304c
p185
F0.0111731843575419
sV\u4e39
p186
F0.0033519553072625698
sV\u9054
p187
F0.0011173184357541898
sV\u30d7
p188
F0.0011173184357541898
sV\u7a0e
p189
F0.0011173184357541898
sV\u91dd
p190
F0.0011173184357541898
sV\u305c
p191
F0.0011173184357541898
sV\u30df
p192
F0.0011173184357541898
sVd
p193
F0.0011173184357541898
sV\u4ee3
p194
F0.0011173184357541898
sV\u65e5
p195
F0.0022346368715083797
sV\u3064
p196
F0.0033519553072625698
sV\u5f66
p197
F0.0011173184357541898
sVl
p198
F0.0011173184357541898
sV\u636e
p199
F0.0011173184357541898
sVt
p200
F0.0022346368715083797
sV\u8868
p201
F0.0011173184357541898
sV\u4efb
p202
F0.004469273743016759
sV\u677e
p203
F0.0022346368715083797
sV\u4f01
p204
F0.0033519553072625698
sV\uff09
p205
F0.00782122905027933
sV\u4e88
p206
F0.0011173184357541898
sV\u8d8a
p207
F0.0022346368715083797
sV\u308c
p208
F0.004469273743016759
sV\u6c0f
p209
F0.0067039106145251395
sV\u9396
p210
F0.0033519553072625698
sV\u8a98
p211
F0.0011173184357541898
sV\u6e1b
p212
F0.0011173184357541898
sV\u7d9a
p213
F0.0011173184357541898
sV\u8f9e
p214
F0.0011173184357541898
sV\u6b21
p215
F0.0011173184357541898
sV\u95a2
p216
F0.0022346368715083797
sV\u30a4
p217
F0.00558659217877095
sV\u52e2
p218
F0.0033519553072625698
sVI
p219
F0.0033519553072625698
sV\u30b4
p220
F0.0011173184357541898
sV7
p221
F0.0022346368715083797
sV\u4e3b
p222
F0.0011173184357541898
sV\u5341
p223
F0.0011173184357541898
sV\u30c4
p224
F0.0011173184357541898
sVG
p225
F0.0011173184357541898
sV\u6749
p226
F0.0022346368715083797
sV\u984d
p227
F0.0011173184357541898
sV\u514d
p228
F0.0011173184357541898
sV\u80cc
p229
F0.0011173184357541898
sV\u304f
p230
F0.00558659217877095
sV\u53ce
p231
F0.0011173184357541898
sV\u3057
p232
F0.013407821229050279
sV\u53d6
p233
F0.004469273743016759
sV\u305f
p234
F0.0223463687150838
sV\u9663
p235
F0.0011173184357541898
sV\u5165
p236
F0.0022346368715083797
sV\u3067
p237
F0.00558659217877095
sV\u5f69
p238
F0.0011173184357541898
sV\u696d
p239
F0.008938547486033519
sVo
p240
F0.0033519553072625698
sV\u6771
p241
F0.0011173184357541898
sV\u30a9
p242
F0.0011173184357541898
sV\u8077
p243
F0.0011173184357541898
sV\u5f79
p244
F0.00558659217877095
sV\u76f8
p245
F0.0011173184357541898
sV\u51fa
p246
F0.0011173184357541898
sV\u30fc
p247
F0.01675977653631285
sV\u307f
p248
F0.0011173184357541898
sV\u73fe
p249
F0.0011173184357541898
sV\u3002
p250
F0.0223463687150838
sV\u5104
p251
F0.0011173184357541898
sV\u5206
p252
F0.0011173184357541898
sV\u6708
p253
F0.004469273743016759
sV\u578b
p254
F0.0011173184357541898
sV\u308d
p255
F0.0011173184357541898
sV\u898f
p256
F0.0011173184357541898
sV\u660e
p257
F0.0011173184357541898
sV\u69d8
p258
F0.0011173184357541898
sVi
p259
F0.0033519553072625698
sV\u5728
p260
F0.0011173184357541898
sV\u682a
p261
F0.0011173184357541898
sV\u5730
p262
F0.0033519553072625698
sV\u9032
p263
F0.0011173184357541898
sV\u56de
p264
F0.0022346368715083797
sVa
p265
F0.00558659217877095
sV\u5fc3
p266
F0.0011173184357541898
sVB
p267
F0.0011173184357541898
sV\u5c4a
p268
F0.0011173184357541898
sV\u30cd
p269
F0.0011173184357541898
sV\u754c
p270
F0.0022346368715083797
sV\u5b50
p271
F0.0011173184357541898
sV\u3052
p272
F0.0011173184357541898
sV\u30d5
p273
F0.0011173184357541898
sV\u52d9
p274
F0.0022346368715083797
sV\u62e1
p275
F0.0011173184357541898
sV\u53e3
p276
F0.0011173184357541898
sVb
p277
F0.0011173184357541898
sV\u30e5
p278
F0.0011173184357541898
sV\u8d64
p279
F0.0022346368715083797
sV\u306a
p280
F0.01452513966480447
sV\u7def
p281
F0.0011173184357541898
sV\u8b70
p282
F0.0011173184357541898
sV\u67f3
p283
F0.00782122905027933
sVr
p284
F0.0022346368715083797
sV\u6c7a
p285
F0.0022346368715083797
sV\u517c
p286
F0.0011173184357541898
sV\u3082
p287
F0.00558659217877095
sV\u4e09
p288
F0.0022346368715083797
sV\u308a
p289
F0.0011173184357541898
sV\u300d
p290
F0.008938547486033519
sV\u3092
p291
F0.021229050279329607
sV\u6e96
p292
F0.0011173184357541898
sV\u5b9a
p293
F0.0022346368715083797
sV%
p294
F0.0011173184357541898
sV\u5927
p295
F0.0011173184357541898
sV\u5ea6
p296
F0.0011173184357541898
sV\u652f
p297
F0.0033519553072625698
sV\u30b2
p298
F0.0011173184357541898
sV5
p299
F0.0011173184357541898
sV\u6a39
p300
F0.0011173184357541898
sV\u79cb
p301
F0.0011173184357541898
sV\u8a2d
p302
F0.0011173184357541898
sVJ
p303
F0.0011173184357541898
sVE
p304
F0.0033519553072625698
sV\u9577
p305
F0.004469273743016759
sV\u304a
p306
F0.0011173184357541898
sV\u304d
p307
F0.0033519553072625698
sV\u7d4c
p308
F0.004469273743016759
sV\u4f53
p309
F0.0011173184357541898
sV\u3055
p310
F0.004469273743016759
sV\u30da
p311
F0.0022346368715083797
sV\u305d
p312
F0.0011173184357541898
sV\u64a4
p313
F0.0011173184357541898
sV2
p314
F0.00782122905027933
sVe
p315
F0.004469273743016759
sV\u6750
p316
F0.0011173184357541898
sV\u30ea
p317
F0.012290502793296089
sV\u8a71
p318
F0.0011173184357541898
sV\u8ff0
p319
F0.0022346368715083797
sV\u58f2
p320
F0.0011173184357541898
sVu
p321
F0.0011173184357541898
sV\u6d77
p322
F0.0011173184357541898
s.